; Function Attrs: mustprogress nofree norecurse nosync nounwind willreturn memory(read, argmem: readwrite, inaccessiblemem: none) uwtable
define noundef i32 @_ZNK2cv8Subdiv2D7edgeDstEiPNS_6Point_IfEE(ptr noundef nonnull readonly align 8 captures(none) dereferenceable(80) %0, i32 noundef %1, ptr noundef writeonly %2) local_unnamed_addr #2 align 2 {
  %4 = getelementptr inbounds nuw i8, ptr %0, i64 24
  %5 = ashr i32 %1, 2
  %6 = sext i32 %5 to i64
  %7 = load ptr, ptr %4, align 8, !tbaa !3
  %8 = and i32 %1, 3
  %9 = xor i32 %8, 2
  %10 = zext nneg i32 %9 to i64
  %11 = getelementptr inbounds nuw %"struct.cv::Subdiv2D::QuadEdge", ptr %7, i64 %6, i32 1, i64 %10
  %12 = load i32, ptr %11, align 4, !tbaa !9
  %.not = icmp eq ptr %2, null
  br i1 %.not, label %18, label %13

13:                                               ; preds = %3
  %14 = sext i32 %12 to i64
  %15 = load ptr, ptr %0, align 8, !tbaa !11
  %16 = getelementptr inbounds nuw %"struct.cv::Subdiv2D::Vertex", ptr %15, i64 %14, i32 2
  %17 = load i64, ptr %16, align 4
  store i64 %17, ptr %2, align 4
  br label %18

18:                                               ; preds = %13, %3
  ret i32 %12
}